target datalayout = "e-m:e-p270:32:32-p271:32:32-p272:64:64-i64:64-i128:128-f80:128-n8:16:32:64-S128"
target triple = "x86_64-pc-linux-gnu"

%struct.ArgoASFFileHeader = type { i32, i16, i16, i32, i32, [9 x i8] }
%struct.ArgoASFChunkHeader = type { i32, i32, i32, i16, i16, i32 }
%struct.AVFormatContext = type { ptr, ptr, ptr, ptr, ptr, i32, i32, ptr, i32, ptr, i32, ptr, ptr, i64, i64, i64, i32, i32, i32, i64, i64, ptr, i32, i32, ptr, i32, i32, i32, i32, ptr, i64, i32, i32, %struct.AVIOInterruptCB, i32, i32, i32, i32, i64, i32, i32, i32, i32, i32, i32, i32, i32, i32, i32, i32, i32, i64, i32, i32, i32, i32, i32, ptr, ptr, ptr, ptr, i32, ptr, ptr, ptr, ptr, i32, ptr, ptr, i64, ptr, ptr, ptr, i64 }
%struct.AVIOInterruptCB = type { ptr, ptr }
%struct.ArgoASFDemuxContext = type { %struct.ArgoASFFileHeader, %struct.ArgoASFChunkHeader, i32 }

@.str.5 = private unnamed_addr constant [6 x i8] c"title\00", align 1

; Function Attrs: nounwind uwtable
define void @ff_argo_asf_parse_chunk_header(ptr noundef %0, ptr noundef %1) #0 {
  %3 = alloca ptr, align 8
  %4 = alloca ptr, align 8
  store ptr %0, ptr %3, align 8, !tbaa !22
  store ptr %1, ptr %4, align 8, !tbaa !9
  %5 = load ptr, ptr %4, align 8, !tbaa !9
  %6 = getelementptr inbounds i8, ptr %5, i64 0
  %7 = load i32, ptr %6, align 1, !tbaa !11
  %8 = load ptr, ptr %3, align 8, !tbaa !22
  %9 = getelementptr inbounds nuw %struct.ArgoASFChunkHeader, ptr %8, i32 0, i32 0
  store i32 %7, ptr %9, align 4, !tbaa !24
  %10 = load ptr, ptr %4, align 8, !tbaa !9
  %11 = getelementptr inbounds i8, ptr %10, i64 4
  %12 = load i32, ptr %11, align 1, !tbaa !11
  %13 = load ptr, ptr %3, align 8, !tbaa !22
  %14 = getelementptr inbounds nuw %struct.ArgoASFChunkHeader, ptr %13, i32 0, i32 1
  store i32 %12, ptr %14, align 4, !tbaa !26
  %15 = load ptr, ptr %4, align 8, !tbaa !9
  %16 = getelementptr inbounds i8, ptr %15, i64 8
  %17 = load i32, ptr %16, align 1, !tbaa !11
  %18 = load ptr, ptr %3, align 8, !tbaa !22
  %19 = getelementptr inbounds nuw %struct.ArgoASFChunkHeader, ptr %18, i32 0, i32 2
  store i32 %17, ptr %19, align 4, !tbaa !27
  %20 = load ptr, ptr %4, align 8, !tbaa !9
  %21 = getelementptr inbounds i8, ptr %20, i64 12
  %22 = load i16, ptr %21, align 1, !tbaa !11
  %23 = load ptr, ptr %3, align 8, !tbaa !22
  %24 = getelementptr inbounds nuw %struct.ArgoASFChunkHeader, ptr %23, i32 0, i32 3
  store i16 %22, ptr %24, align 4, !tbaa !28
  %25 = load ptr, ptr %4, align 8, !tbaa !9
  %26 = getelementptr inbounds i8, ptr %25, i64 14
  %27 = load i16, ptr %26, align 1, !tbaa !11
  %28 = load ptr, ptr %3, align 8, !tbaa !22
  %29 = getelementptr inbounds nuw %struct.ArgoASFChunkHeader, ptr %28, i32 0, i32 4
  store i16 %27, ptr %29, align 2, !tbaa !29
  %30 = load ptr, ptr %4, align 8, !tbaa !9
  %31 = getelementptr inbounds i8, ptr %30, i64 16
  %32 = load i32, ptr %31, align 1, !tbaa !11
  %33 = load ptr, ptr %3, align 8, !tbaa !22
  %34 = getelementptr inbounds nuw %struct.ArgoASFChunkHeader, ptr %33, i32 0, i32 5
  store i32 %32, ptr %34, align 4, !tbaa !30
  ret void
}

; Function Attrs: nounwind uwtable
define i32 @ff_argo_asf_validate_file_header(ptr noundef %0, ptr noundef %1) #0 {
  %3 = alloca i32, align 4
  %4 = alloca ptr, align 8
  %5 = alloca ptr, align 8
  store ptr %0, ptr %4, align 8, !tbaa !20
  store ptr %1, ptr %5, align 8, !tbaa !4
  %6 = load ptr, ptr %5, align 8, !tbaa !4
  %7 = getelementptr inbounds nuw %struct.ArgoASFFileHeader, ptr %6, i32 0, i32 0
  %8 = load i32, ptr %7, align 4, !tbaa !12
  %9 = icmp ne i32 %8, 4608833
  br i1 %9, label %15, label %10

10:                                               ; preds = %2
  %11 = load ptr, ptr %5, align 8, !tbaa !4
  %12 = getelementptr inbounds nuw %struct.ArgoASFFileHeader, ptr %11, i32 0, i32 3
  %13 = load i32, ptr %12, align 4, !tbaa !18
  %14 = icmp eq i32 %13, 0
  br i1 %14, label %15, label %16

15:                                               ; preds = %10, %2
  store i32 -1094995529, ptr %3, align 4
  br label %23

16:                                               ; preds = %10
  %17 = load ptr, ptr %5, align 8, !tbaa !4
  %18 = getelementptr inbounds nuw %struct.ArgoASFFileHeader, ptr %17, i32 0, i32 4
  %19 = load i32, ptr %18, align 4, !tbaa !19
  %20 = icmp ult i32 %19, 24
  br i1 %20, label %21, label %22

21:                                               ; preds = %16
  store i32 -1094995529, ptr %3, align 4
  br label %23

22:                                               ; preds = %16
  store i32 0, ptr %3, align 4
  br label %23

23:                                               ; preds = %22, %21, %15
  %24 = load i32, ptr %3, align 4
  ret i32 %24
}

; Function Attrs: nounwind uwtable
define void @ff_argo_asf_parse_file_header(ptr noundef %0, ptr noundef %1) #0 {
  %3 = alloca ptr, align 8
  %4 = alloca ptr, align 8
  store ptr %0, ptr %3, align 8, !tbaa !4
  store ptr %1, ptr %4, align 8, !tbaa !9
  %5 = load ptr, ptr %4, align 8, !tbaa !9
  %6 = getelementptr inbounds i8, ptr %5, i64 0
  %7 = load i32, ptr %6, align 1, !tbaa !11
  %8 = load ptr, ptr %3, align 8, !tbaa !4
  %9 = getelementptr inbounds nuw %struct.ArgoASFFileHeader, ptr %8, i32 0, i32 0
  store i32 %7, ptr %9, align 4, !tbaa !12
  %10 = load ptr, ptr %4, align 8, !tbaa !9
  %11 = getelementptr inbounds i8, ptr %10, i64 4
  %12 = load i16, ptr %11, align 1, !tbaa !11
  %13 = load ptr, ptr %3, align 8, !tbaa !4
  %14 = getelementptr inbounds nuw %struct.ArgoASFFileHeader, ptr %13, i32 0, i32 1
  store i16 %12, ptr %14, align 4, !tbaa !16
  %15 = load ptr, ptr %4, align 8, !tbaa !9
  %16 = getelementptr inbounds i8, ptr %15, i64 6
  %17 = load i16, ptr %16, align 1, !tbaa !11
  %18 = load ptr, ptr %3, align 8, !tbaa !4
  %19 = getelementptr inbounds nuw %struct.ArgoASFFileHeader, ptr %18, i32 0, i32 2
  store i16 %17, ptr %19, align 2, !tbaa !17
  %20 = load ptr, ptr %4, align 8, !tbaa !9
  %21 = getelementptr inbounds i8, ptr %20, i64 8
  %22 = load i32, ptr %21, align 1, !tbaa !11
  %23 = load ptr, ptr %3, align 8, !tbaa !4
  %24 = getelementptr inbounds nuw %struct.ArgoASFFileHeader, ptr %23, i32 0, i32 3
  store i32 %22, ptr %24, align 4, !tbaa !18
  %25 = load ptr, ptr %4, align 8, !tbaa !9
  %26 = getelementptr inbounds i8, ptr %25, i64 12
  %27 = load i32, ptr %26, align 1, !tbaa !11
  %28 = load ptr, ptr %3, align 8, !tbaa !4
  %29 = getelementptr inbounds nuw %struct.ArgoASFFileHeader, ptr %28, i32 0, i32 4
  store i32 %27, ptr %29, align 4, !tbaa !19
  %30 = load ptr, ptr %3, align 8, !tbaa !4
  %31 = getelementptr inbounds nuw %struct.ArgoASFFileHeader, ptr %30, i32 0, i32 5
  %32 = getelementptr inbounds [9 x i8], ptr %31, i64 0, i64 0
  %33 = load ptr, ptr %4, align 8, !tbaa !9
  %34 = getelementptr inbounds i8, ptr %33, i64 16
  call void @llvm.memcpy.p0.p0.i64(ptr align 4 %32, ptr align 1 %34, i64 8, i1 false)
  %35 = load ptr, ptr %3, align 8, !tbaa !4
  %36 = getelementptr inbounds nuw %struct.ArgoASFFileHeader, ptr %35, i32 0, i32 5
  %37 = getelementptr inbounds [9 x i8], ptr %36, i64 0, i64 8
  store i8 0, ptr %37, align 4, !tbaa !11
  ret void
}

; Function Attrs: nounwind uwtable
define internal i32 @argo_asf_read_header(ptr noundef %0) #0 {
  %2 = alloca i32, align 4
  %3 = alloca ptr, align 8
  %4 = alloca i64, align 8
  %5 = alloca ptr, align 8
  %6 = alloca ptr, align 8
  %7 = alloca ptr, align 8
  %8 = alloca [24 x i8], align 16
  %9 = alloca i32, align 4
  store ptr %0, ptr %3, align 8, !tbaa !20
  call void @llvm.lifetime.start.p0(i64 8, ptr %4) #6
  call void @llvm.lifetime.start.p0(i64 8, ptr %5) #6
  %10 = load ptr, ptr %3, align 8, !tbaa !20
  %11 = getelementptr inbounds nuw %struct.AVFormatContext, ptr %10, i32 0, i32 4
  %12 = load ptr, ptr %11, align 8, !tbaa !66
  store ptr %12, ptr %5, align 8, !tbaa !78
  call void @llvm.lifetime.start.p0(i64 8, ptr %6) #6
  call void @llvm.lifetime.start.p0(i64 8, ptr %7) #6
  %13 = load ptr, ptr %3, align 8, !tbaa !20
  %14 = getelementptr inbounds nuw %struct.AVFormatContext, ptr %13, i32 0, i32 3
  %15 = load ptr, ptr %14, align 8, !tbaa !79
  store ptr %15, ptr %7, align 8, !tbaa !80
  call void @llvm.lifetime.start.p0(i64 24, ptr %8) #6
  %16 = load ptr, ptr %3, align 8, !tbaa !20
  %17 = call ptr @avformat_new_stream(ptr noundef %16, ptr noundef null)
  store ptr %17, ptr %6, align 8, !tbaa !31
  %18 = icmp ne ptr %17, null
  br i1 %18, label %20, label %19

19:                                               ; preds = %1
  store i32 -12, ptr %2, align 4
  store i32 1, ptr %9, align 4
  br label %99

20:                                               ; preds = %1
  %21 = load ptr, ptr %5, align 8, !tbaa !78
  %22 = getelementptr inbounds [24 x i8], ptr %8, i64 0, i64 0
  %23 = call i32 @avio_read(ptr noundef %21, ptr noundef %22, i32 noundef 24)
  %24 = sext i32 %23 to i64
  store i64 %24, ptr %4, align 8, !tbaa !82
  %25 = icmp slt i64 %24, 0
  br i1 %25, label %26, label %29

26:                                               ; preds = %20
  %27 = load i64, ptr %4, align 8, !tbaa !82
  %28 = trunc i64 %27 to i32
  store i32 %28, ptr %2, align 4
  store i32 1, ptr %9, align 4
  br label %99

29:                                               ; preds = %20
  %30 = load i64, ptr %4, align 8, !tbaa !82
  %31 = icmp ne i64 %30, 24
  br i1 %31, label %32, label %33

32:                                               ; preds = %29
  store i32 -5, ptr %2, align 4
  store i32 1, ptr %9, align 4
  br label %99

33:                                               ; preds = %29
  br label %34

34:                                               ; preds = %33
  %35 = load ptr, ptr %7, align 8, !tbaa !80
  %36 = getelementptr inbounds nuw %struct.ArgoASFDemuxContext, ptr %35, i32 0, i32 0
  %37 = getelementptr inbounds [24 x i8], ptr %8, i64 0, i64 0
  call void @ff_argo_asf_parse_file_header(ptr noundef %36, ptr noundef %37)
  %38 = load ptr, ptr %3, align 8, !tbaa !20
  %39 = load ptr, ptr %7, align 8, !tbaa !80
  %40 = getelementptr inbounds nuw %struct.ArgoASFDemuxContext, ptr %39, i32 0, i32 0
  %41 = call i32 @ff_argo_asf_validate_file_header(ptr noundef %38, ptr noundef %40)
  %42 = sext i32 %41 to i64
  store i64 %42, ptr %4, align 8, !tbaa !82
  %43 = icmp slt i64 %42, 0
  br i1 %43, label %44, label %47

44:                                               ; preds = %34
  %45 = load i64, ptr %4, align 8, !tbaa !82
  %46 = trunc i64 %45 to i32
  store i32 %46, ptr %2, align 4
  store i32 1, ptr %9, align 4
  br label %99

47:                                               ; preds = %34
  %48 = load ptr, ptr %7, align 8, !tbaa !80
  %49 = getelementptr inbounds nuw %struct.ArgoASFDemuxContext, ptr %48, i32 0, i32 0
  %50 = getelementptr inbounds nuw %struct.ArgoASFFileHeader, ptr %49, i32 0, i32 3
  %51 = load i32, ptr %50, align 4, !tbaa !83
  %52 = icmp ne i32 %51, 1
  br i1 %52, label %53, label %54

53:                                               ; preds = %47
  store i32 -1094995529, ptr %2, align 4
  store i32 1, ptr %9, align 4
  br label %99

54:                                               ; preds = %47
  %55 = load ptr, ptr %5, align 8, !tbaa !78
  %56 = load ptr, ptr %7, align 8, !tbaa !80
  %57 = getelementptr inbounds nuw %struct.ArgoASFDemuxContext, ptr %56, i32 0, i32 0
  %58 = getelementptr inbounds nuw %struct.ArgoASFFileHeader, ptr %57, i32 0, i32 4
  %59 = load i32, ptr %58, align 4, !tbaa !85
  %60 = sub i32 %59, 24
  %61 = zext i32 %60 to i64
  %62 = call i64 @avio_skip(ptr noundef %55, i64 noundef %61)
  store i64 %62, ptr %4, align 8, !tbaa !82
  %63 = icmp slt i64 %62, 0
  br i1 %63, label %64, label %67

64:                                               ; preds = %54
  %65 = load i64, ptr %4, align 8, !tbaa !82
  %66 = trunc i64 %65 to i32
  store i32 %66, ptr %2, align 4
  store i32 1, ptr %9, align 4
  br label %99

67:                                               ; preds = %54
  %68 = load ptr, ptr %5, align 8, !tbaa !78
  %69 = getelementptr inbounds [24 x i8], ptr %8, i64 0, i64 0
  %70 = call i32 @avio_read(ptr noundef %68, ptr noundef %69, i32 noundef 20)
  %71 = sext i32 %70 to i64
  store i64 %71, ptr %4, align 8, !tbaa !82
  %72 = icmp slt i64 %71, 0
  br i1 %72, label %73, label %76

73:                                               ; preds = %67
  %74 = load i64, ptr %4, align 8, !tbaa !82
  %75 = trunc i64 %74 to i32
  store i32 %75, ptr %2, align 4
  store i32 1, ptr %9, align 4
  br label %99

76:                                               ; preds = %67
  %77 = load i64, ptr %4, align 8, !tbaa !82
  %78 = icmp ne i64 %77, 20
  br i1 %78, label %79, label %80

79:                                               ; preds = %76
  store i32 -5, ptr %2, align 4
  store i32 1, ptr %9, align 4
  br label %99

80:                                               ; preds = %76
  br label %81

81:                                               ; preds = %80
  %82 = load ptr, ptr %7, align 8, !tbaa !80
  %83 = getelementptr inbounds nuw %struct.ArgoASFDemuxContext, ptr %82, i32 0, i32 1
  %84 = getelementptr inbounds [24 x i8], ptr %8, i64 0, i64 0
  call void @ff_argo_asf_parse_chunk_header(ptr noundef %83, ptr noundef %84)
  %85 = load ptr, ptr %3, align 8, !tbaa !20
  %86 = getelementptr inbounds nuw %struct.AVFormatContext, ptr %85, i32 0, i32 29
  %87 = load ptr, ptr %7, align 8, !tbaa !80
  %88 = getelementptr inbounds nuw %struct.ArgoASFDemuxContext, ptr %87, i32 0, i32 0
  %89 = getelementptr inbounds nuw %struct.ArgoASFFileHeader, ptr %88, i32 0, i32 5
  %90 = getelementptr inbounds [9 x i8], ptr %89, i64 0, i64 0
  %91 = call i32 @av_dict_set(ptr noundef %86, ptr noundef @.str.5, ptr noundef %90, i32 noundef 0)
  %92 = load ptr, ptr %3, align 8, !tbaa !20
  %93 = load ptr, ptr %6, align 8, !tbaa !31
  %94 = load ptr, ptr %7, align 8, !tbaa !80
  %95 = getelementptr inbounds nuw %struct.ArgoASFDemuxContext, ptr %94, i32 0, i32 0
  %96 = load ptr, ptr %7, align 8, !tbaa !80
  %97 = getelementptr inbounds nuw %struct.ArgoASFDemuxContext, ptr %96, i32 0, i32 1
  %98 = call i32 @ff_argo_asf_fill_stream(ptr noundef %92, ptr noundef %93, ptr noundef %95, ptr noundef %97)
  store i32 %98, ptr %2, align 4
  store i32 1, ptr %9, align 4
  br label %99

99:                                               ; preds = %81, %79, %73, %64, %53, %44, %32, %26, %19
  call void @llvm.lifetime.end.p0(i64 24, ptr %8) #6
  call void @llvm.lifetime.end.p0(i64 8, ptr %7) #6
  call void @llvm.lifetime.end.p0(i64 8, ptr %6) #6
  call void @llvm.lifetime.end.p0(i64 8, ptr %5) #6
  call void @llvm.lifetime.end.p0(i64 8, ptr %4) #6
  %100 = load i32, ptr %2, align 4
  ret i32 %100
}