; Function Attrs: nounwind uwtable
define internal i32 @argo_asf_read_header(ptr noundef %0) #3 {
  %2 = alloca [24 x i8], align 16
  %3 = getelementptr inbounds nuw i8, ptr %0, i64 32
  %4 = load ptr, ptr %3, align 8, !tbaa !51
  %5 = getelementptr inbounds nuw i8, ptr %0, i64 24
  %6 = load ptr, ptr %5, align 8, !tbaa !63
  call void @llvm.lifetime.start.p0(i64 24, ptr nonnull %2) #10
  %7 = tail call ptr @avformat_new_stream(ptr noundef %0, ptr noundef null) #10
  %.not = icmp eq ptr %7, null
  br i1 %.not, label %ff_argo_asf_validate_file_header.exit.thread, label %8

8:                                                ; preds = %1
  %9 = call i32 @avio_read(ptr noundef %4, ptr noundef nonnull %2, i32 noundef 24) #10
  %10 = icmp slt i32 %9, 0
  br i1 %10, label %ff_argo_asf_validate_file_header.exit.thread, label %11

11:                                               ; preds = %8
  %.not28 = icmp eq i32 %9, 24
  br i1 %.not28, label %12, label %ff_argo_asf_validate_file_header.exit.thread

12:                                               ; preds = %11
  %13 = load i32, ptr %2, align 16, !tbaa !4
  store i32 %13, ptr %6, align 4, !tbaa !7
  %14 = getelementptr inbounds nuw i8, ptr %2, i64 4
  %15 = load i16, ptr %14, align 4, !tbaa !4
  %16 = getelementptr inbounds nuw i8, ptr %6, i64 4
  store i16 %15, ptr %16, align 4, !tbaa !11
  %17 = getelementptr inbounds nuw i8, ptr %2, i64 6
  %18 = load i16, ptr %17, align 2, !tbaa !4
  %19 = getelementptr inbounds nuw i8, ptr %6, i64 6
  store i16 %18, ptr %19, align 2, !tbaa !12
  %20 = getelementptr inbounds nuw i8, ptr %2, i64 8
  %21 = load i32, ptr %20, align 8, !tbaa !4
  %22 = getelementptr inbounds nuw i8, ptr %6, i64 8
  store i32 %21, ptr %22, align 4, !tbaa !13
  %23 = getelementptr inbounds nuw i8, ptr %2, i64 12
  %24 = load i32, ptr %23, align 4, !tbaa !4
  %25 = getelementptr inbounds nuw i8, ptr %6, i64 12
  store i32 %24, ptr %25, align 4, !tbaa !14
  %26 = getelementptr inbounds nuw i8, ptr %6, i64 16
  %27 = getelementptr inbounds nuw i8, ptr %2, i64 16
  %28 = load i64, ptr %27, align 16
  store i64 %28, ptr %26, align 4
  %29 = getelementptr inbounds nuw i8, ptr %6, i64 24
  store i8 0, ptr %29, align 4, !tbaa !4
  %.not.i = icmp eq i32 %13, 4608833
  %30 = icmp ne i32 %21, 0
  %or.cond.not37 = select i1 %.not.i, i1 %30, i1 false
  %31 = icmp ugt i32 %24, 23
  %or.cond32.not35 = select i1 %or.cond.not37, i1 %31, i1 false
  %.not29 = icmp eq i32 %21, 1
  %or.cond33 = select i1 %or.cond32.not35, i1 %.not29, i1 false
  br i1 %or.cond33, label %32, label %ff_argo_asf_validate_file_header.exit.thread

32:                                               ; preds = %12
  %33 = add i32 %24, -24
  %34 = zext i32 %33 to i64
  %35 = call i64 @avio_skip(ptr noundef %4, i64 noundef %34) #10
  %36 = icmp slt i64 %35, 0
  br i1 %36, label %37, label %39

37:                                               ; preds = %32
  %38 = trunc i64 %35 to i32
  br label %ff_argo_asf_validate_file_header.exit.thread

39:                                               ; preds = %32
  %40 = call i32 @avio_read(ptr noundef %4, ptr noundef nonnull %2, i32 noundef 20) #10
  %41 = icmp slt i32 %40, 0
  br i1 %41, label %ff_argo_asf_validate_file_header.exit.thread, label %42

42:                                               ; preds = %39
  %.not30 = icmp eq i32 %40, 20
  br i1 %.not30, label %43, label %ff_argo_asf_validate_file_header.exit.thread

43:                                               ; preds = %42
  %44 = getelementptr inbounds nuw i8, ptr %6, i64 28
  %45 = load i32, ptr %2, align 16, !tbaa !4
  store i32 %45, ptr %44, align 4, !tbaa !15
  %46 = load i32, ptr %14, align 4, !tbaa !4
  %47 = getelementptr inbounds nuw i8, ptr %6, i64 32
  store i32 %46, ptr %47, align 4, !tbaa !17
  %48 = load i32, ptr %20, align 8, !tbaa !4
  %49 = getelementptr inbounds nuw i8, ptr %6, i64 36
  store i32 %48, ptr %49, align 4, !tbaa !18
  %50 = load i16, ptr %23, align 4, !tbaa !4
  %51 = getelementptr inbounds nuw i8, ptr %6, i64 40
  store i16 %50, ptr %51, align 4, !tbaa !19
  %52 = getelementptr inbounds nuw i8, ptr %2, i64 14
  %53 = load i16, ptr %52, align 2, !tbaa !4
  %54 = getelementptr inbounds nuw i8, ptr %6, i64 42
  store i16 %53, ptr %54, align 2, !tbaa !20
  %55 = load i32, ptr %27, align 16, !tbaa !4
  %56 = getelementptr inbounds nuw i8, ptr %6, i64 44
  store i32 %55, ptr %56, align 4, !tbaa !21
  %57 = getelementptr inbounds nuw i8, ptr %0, i64 192
  %58 = call i32 @av_dict_set(ptr noundef nonnull %57, ptr noundef nonnull @.str.5, ptr noundef nonnull %26, i32 noundef 0) #10
  %59 = call i32 @ff_argo_asf_fill_stream(ptr noundef nonnull %0, ptr noundef nonnull %7, ptr noundef nonnull %6, ptr noundef nonnull %44)
  br label %ff_argo_asf_validate_file_header.exit.thread

ff_argo_asf_validate_file_header.exit.thread:     ; preds = %12, %42, %39, %11, %8, %1, %43, %37
  %.0 = phi i32 [ %38, %37 ], [ %59, %43 ], [ -12, %1 ], [ %9, %8 ], [ -5, %11 ], [ %40, %39 ], [ -5, %42 ], [ -1094995529, %12 ]
  call void @llvm.lifetime.end.p0(i64 24, ptr nonnull %2) #10
  ret i32 %.0
}